target datalayout = "e-m:e-p270:32:32-p271:32:32-p272:64:64-i64:64-i128:128-f80:128-n8:16:32:64-S128"
target triple = "x86_64-pc-linux-gnu"

@__const.aesgcm_default_test.key1 = private unnamed_addr constant [16 x i8] c")\8E\FA\1C\CF)\CFb\AEh$\BF\C1\95W\FC", align 16
@__const.aesgcm_default_test.iv1 = private unnamed_addr constant [12 x i8] c"oX\A9?\E1\D2\07\FA\E4\ED/m", align 1
@__const.aesgcm_default_test.plain1 = private unnamed_addr constant [32 x i8] c"\CC8\BC\CDk\C56\AD\91\9B\13\95\F5\D68\01\F9\9F\80h\D6\\\A5\ACc\87-\AF\16\B99\01", align 64
@__const.aesgcm_default_test.aad1 = private unnamed_addr constant [16 x i8] c"\02\1F\AF\D28F9s\FF\E8\02V\E5\B1\C6\B1", align 16
@__const.aesgcm_default_test.cipher1 = private unnamed_addr constant [32 x i8] c"\DF\CEN\9C\D2\91\10=\7F\E4\E63Q\D9\E7\9D=\FD9\1E2g\10FX!-\A9e!\B7\DB", align 64
@__const.aesgcm_default_test.tag1 = private unnamed_addr constant [16 x i8] c"T$e\EFY\93\16\F7:zV\05\09\A2\D9\F2", align 16
@__const.aesgcm_default_test.key2 = private unnamed_addr constant [16 x i8] c"\01m\BB8\DA\A7m\FE}\A3\84\EB\F1$\03d", align 16
@__const.aesgcm_default_test.iv2 = private unnamed_addr constant [12 x i8] c"\07\93\EF:\DAx/x\C9\8A\FF\E3", align 1
@__const.aesgcm_default_test.plain2 = private unnamed_addr constant [16 x i8] c"K4\A9\ECWcRK\19\1DV\16\C5G\F6\B7", align 64
@__const.aesgcm_default_test.cipher2 = private unnamed_addr constant [16 x i8] c"`\9A\A3\F4T\1B\C0\FE\991\DA\AD.\E1]\0C", align 64
@__const.aesgcm_default_test.tag2 = private unnamed_addr constant [16 x i8] c"3\AF\ECY\C4[\AFh\9A^\1B\13\AEB6\19", align 16
@__const.aesgcm_default_test.key3 = private unnamed_addr constant [16 x i8] c"\B0\1EE\CC0\88\AA\BA\9F\A4=\81\D4\81\82?", align 16
@__const.aesgcm_default_test.iv3 = private unnamed_addr constant [12 x i8] c"Z,JfF\87\13EjK\D5\E1", align 1
@__const.aesgcm_default_test.tag3 = private unnamed_addr constant [12 x i8] c"\01B\80\F9D\F5<h\11d\B2\FF", align 1

; Function Attrs: nounwind uwtable
define dso_local i32 @aesgcm_default_test() #0 {
  %1 = alloca i32, align 4
  %2 = alloca [16 x i8], align 16
  %3 = alloca [12 x i8], align 1
  %4 = alloca [32 x i8], align 64
  %5 = alloca [16 x i8], align 16
  %6 = alloca [32 x i8], align 64
  %7 = alloca [16 x i8], align 16
  %8 = alloca [16 x i8], align 16
  %9 = alloca [12 x i8], align 1
  %10 = alloca [16 x i8], align 64
  %11 = alloca [16 x i8], align 64
  %12 = alloca [16 x i8], align 16
  %13 = alloca [16 x i8], align 16
  %14 = alloca [12 x i8], align 1
  %15 = alloca [12 x i8], align 1
  %16 = alloca i32, align 4
  %17 = alloca i32, align 4
  call void @llvm.lifetime.start.p0(i64 16, ptr %2) #10
  call void @llvm.memcpy.p0.p0.i64(ptr align 16 %2, ptr align 16 @__const.aesgcm_default_test.key1, i64 16, i1 false)
  call void @llvm.lifetime.start.p0(i64 12, ptr %3) #10
  call void @llvm.memcpy.p0.p0.i64(ptr align 1 %3, ptr align 1 @__const.aesgcm_default_test.iv1, i64 12, i1 false)
  call void @llvm.lifetime.start.p0(i64 32, ptr %4) #10
  call void @llvm.memcpy.p0.p0.i64(ptr align 64 %4, ptr align 64 @__const.aesgcm_default_test.plain1, i64 32, i1 false)
  call void @llvm.lifetime.start.p0(i64 16, ptr %5) #10
  call void @llvm.memcpy.p0.p0.i64(ptr align 16 %5, ptr align 16 @__const.aesgcm_default_test.aad1, i64 16, i1 false)
  call void @llvm.lifetime.start.p0(i64 32, ptr %6) #10
  call void @llvm.memcpy.p0.p0.i64(ptr align 64 %6, ptr align 64 @__const.aesgcm_default_test.cipher1, i64 32, i1 false)
  call void @llvm.lifetime.start.p0(i64 16, ptr %7) #10
  call void @llvm.memcpy.p0.p0.i64(ptr align 16 %7, ptr align 16 @__const.aesgcm_default_test.tag1, i64 16, i1 false)
  call void @llvm.lifetime.start.p0(i64 16, ptr %8) #10
  call void @llvm.memcpy.p0.p0.i64(ptr align 16 %8, ptr align 16 @__const.aesgcm_default_test.key2, i64 16, i1 false)
  call void @llvm.lifetime.start.p0(i64 12, ptr %9) #10
  call void @llvm.memcpy.p0.p0.i64(ptr align 1 %9, ptr align 1 @__const.aesgcm_default_test.iv2, i64 12, i1 false)
  call void @llvm.lifetime.start.p0(i64 16, ptr %10) #10
  call void @llvm.memcpy.p0.p0.i64(ptr align 64 %10, ptr align 64 @__const.aesgcm_default_test.plain2, i64 16, i1 false)
  call void @llvm.lifetime.start.p0(i64 16, ptr %11) #10
  call void @llvm.memcpy.p0.p0.i64(ptr align 64 %11, ptr align 64 @__const.aesgcm_default_test.cipher2, i64 16, i1 false)
  call void @llvm.lifetime.start.p0(i64 16, ptr %12) #10
  call void @llvm.memcpy.p0.p0.i64(ptr align 16 %12, ptr align 16 @__const.aesgcm_default_test.tag2, i64 16, i1 false)
  call void @llvm.lifetime.start.p0(i64 16, ptr %13) #10
  call void @llvm.memcpy.p0.p0.i64(ptr align 16 %13, ptr align 16 @__const.aesgcm_default_test.key3, i64 16, i1 false)
  call void @llvm.lifetime.start.p0(i64 12, ptr %14) #10
  call void @llvm.memcpy.p0.p0.i64(ptr align 1 %14, ptr align 1 @__const.aesgcm_default_test.iv3, i64 12, i1 false)
  call void @llvm.lifetime.start.p0(i64 12, ptr %15) #10
  call void @llvm.memcpy.p0.p0.i64(ptr align 1 %15, ptr align 1 @__const.aesgcm_default_test.tag3, i64 12, i1 false)
  call void @llvm.lifetime.start.p0(i64 4, ptr %16) #10
  br label %18

18:                                               ; preds = %0
  br label %19

19:                                               ; preds = %18
  br label %20

20:                                               ; preds = %19
  %21 = getelementptr inbounds [16 x i8], ptr %2, i64 0, i64 0
  %22 = getelementptr inbounds [12 x i8], ptr %3, i64 0, i64 0
  %23 = getelementptr inbounds [32 x i8], ptr %4, i64 0, i64 0
  %24 = getelementptr inbounds [32 x i8], ptr %6, i64 0, i64 0
  %25 = getelementptr inbounds [16 x i8], ptr %5, i64 0, i64 0
  %26 = getelementptr inbounds [16 x i8], ptr %7, i64 0, i64 0
  %27 = call i32 @aesgcm_default_test_helper(ptr noundef %21, i32 noundef 16, ptr noundef %22, i32 noundef 12, ptr noundef %23, i32 noundef 32, ptr noundef %24, i32 noundef 32, ptr noundef %25, i32 noundef 16, ptr noundef %26, i32 noundef 16)
  store i32 %27, ptr %16, align 4, !tbaa !14
  %28 = load i32, ptr %16, align 4, !tbaa !14
  %29 = icmp ne i32 %28, 0
  br i1 %29, label %30, label %32

30:                                               ; preds = %20
  %31 = load i32, ptr %16, align 4, !tbaa !14
  store i32 %31, ptr %1, align 4
  store i32 1, ptr %17, align 4
  br label %53

32:                                               ; preds = %20
  %33 = getelementptr inbounds [16 x i8], ptr %8, i64 0, i64 0
  %34 = getelementptr inbounds [12 x i8], ptr %9, i64 0, i64 0
  %35 = getelementptr inbounds [16 x i8], ptr %10, i64 0, i64 0
  %36 = getelementptr inbounds [16 x i8], ptr %11, i64 0, i64 0
  %37 = getelementptr inbounds [16 x i8], ptr %12, i64 0, i64 0
  %38 = call i32 @aesgcm_default_test_helper(ptr noundef %33, i32 noundef 16, ptr noundef %34, i32 noundef 12, ptr noundef %35, i32 noundef 16, ptr noundef %36, i32 noundef 16, ptr noundef null, i32 noundef 0, ptr noundef %37, i32 noundef 16)
  store i32 %38, ptr %16, align 4, !tbaa !14
  %39 = load i32, ptr %16, align 4, !tbaa !14
  %40 = icmp ne i32 %39, 0
  br i1 %40, label %41, label %43

41:                                               ; preds = %32
  %42 = load i32, ptr %16, align 4, !tbaa !14
  store i32 %42, ptr %1, align 4
  store i32 1, ptr %17, align 4
  br label %53

43:                                               ; preds = %32
  %44 = getelementptr inbounds [16 x i8], ptr %13, i64 0, i64 0
  %45 = getelementptr inbounds [12 x i8], ptr %14, i64 0, i64 0
  %46 = getelementptr inbounds [12 x i8], ptr %15, i64 0, i64 0
  %47 = call i32 @aesgcm_default_test_helper(ptr noundef %44, i32 noundef 16, ptr noundef %45, i32 noundef 12, ptr noundef null, i32 noundef 0, ptr noundef null, i32 noundef 0, ptr noundef null, i32 noundef 0, ptr noundef %46, i32 noundef 12)
  store i32 %47, ptr %16, align 4, !tbaa !14
  %48 = load i32, ptr %16, align 4, !tbaa !14
  %49 = icmp ne i32 %48, 0
  br i1 %49, label %50, label %52

50:                                               ; preds = %43
  %51 = load i32, ptr %16, align 4, !tbaa !14
  store i32 %51, ptr %1, align 4
  store i32 1, ptr %17, align 4
  br label %53

52:                                               ; preds = %43
  store i32 0, ptr %1, align 4
  store i32 1, ptr %17, align 4
  br label %53

53:                                               ; preds = %52, %50, %41, %30
  call void @llvm.lifetime.end.p0(i64 4, ptr %16) #10
  call void @llvm.lifetime.end.p0(i64 12, ptr %15) #10
  call void @llvm.lifetime.end.p0(i64 12, ptr %14) #10
  call void @llvm.lifetime.end.p0(i64 16, ptr %13) #10
  call void @llvm.lifetime.end.p0(i64 16, ptr %12) #10
  call void @llvm.lifetime.end.p0(i64 16, ptr %11) #10
  call void @llvm.lifetime.end.p0(i64 16, ptr %10) #10
  call void @llvm.lifetime.end.p0(i64 12, ptr %9) #10
  call void @llvm.lifetime.end.p0(i64 16, ptr %8) #10
  call void @llvm.lifetime.end.p0(i64 16, ptr %7) #10
  call void @llvm.lifetime.end.p0(i64 32, ptr %6) #10
  call void @llvm.lifetime.end.p0(i64 16, ptr %5) #10
  call void @llvm.lifetime.end.p0(i64 32, ptr %4) #10
  call void @llvm.lifetime.end.p0(i64 12, ptr %3) #10
  call void @llvm.lifetime.end.p0(i64 16, ptr %2) #10
  %54 = load i32, ptr %1, align 4
  ret i32 %54
}