; Function Attrs: nounwind uwtable
define dso_local range(i32 -741585989, 1) i32 @aesgcm_default_test() local_unnamed_addr #0 {
  %1 = alloca [16 x i8], align 16
  %2 = alloca [12 x i8], align 1
  %3 = alloca [32 x i8], align 64
  %4 = alloca [16 x i8], align 16
  %5 = alloca [32 x i8], align 64
  %6 = alloca [16 x i8], align 16
  %7 = alloca [12 x i8], align 1
  %8 = alloca [16 x i8], align 64
  %9 = alloca [16 x i8], align 64
  %10 = alloca [16 x i8], align 16
  %11 = alloca [12 x i8], align 1
  call void @llvm.lifetime.start.p0(i64 16, ptr nonnull %1) #19
  call void @llvm.memcpy.p0.p0.i64(ptr noundef nonnull align 16 dereferenceable(16) %1, ptr noundef nonnull align 16 dereferenceable(16) @__const.aesgcm_default_test.key1, i64 16, i1 false)
  call void @llvm.lifetime.start.p0(i64 12, ptr nonnull %2) #19
  call void @llvm.memcpy.p0.p0.i64(ptr noundef nonnull align 1 dereferenceable(12) %2, ptr noundef nonnull align 1 dereferenceable(12) @__const.aesgcm_default_test.iv1, i64 12, i1 false)
  call void @llvm.lifetime.start.p0(i64 32, ptr nonnull %3) #19
  call void @llvm.memcpy.p0.p0.i64(ptr noundef nonnull align 64 dereferenceable(32) %3, ptr noundef nonnull align 64 dereferenceable(32) @__const.aesgcm_default_test.plain1, i64 32, i1 false)
  call void @llvm.lifetime.start.p0(i64 16, ptr nonnull %4) #19
  call void @llvm.memcpy.p0.p0.i64(ptr noundef nonnull align 16 dereferenceable(16) %4, ptr noundef nonnull align 16 dereferenceable(16) @__const.aesgcm_default_test.aad1, i64 16, i1 false)
  call void @llvm.lifetime.start.p0(i64 32, ptr nonnull %5) #19
  call void @llvm.memcpy.p0.p0.i64(ptr noundef nonnull align 64 dereferenceable(32) %5, ptr noundef nonnull align 64 dereferenceable(32) @__const.aesgcm_default_test.cipher1, i64 32, i1 false)
  call void @llvm.lifetime.start.p0(i64 16, ptr nonnull %6) #19
  call void @llvm.memcpy.p0.p0.i64(ptr noundef nonnull align 16 dereferenceable(16) %6, ptr noundef nonnull align 16 dereferenceable(16) @__const.aesgcm_default_test.key2, i64 16, i1 false)
  call void @llvm.lifetime.start.p0(i64 12, ptr nonnull %7) #19
  call void @llvm.memcpy.p0.p0.i64(ptr noundef nonnull align 1 dereferenceable(12) %7, ptr noundef nonnull align 1 dereferenceable(12) @__const.aesgcm_default_test.iv2, i64 12, i1 false)
  call void @llvm.lifetime.start.p0(i64 16, ptr nonnull %8) #19
  call void @llvm.memcpy.p0.p0.i64(ptr noundef nonnull align 64 dereferenceable(16) %8, ptr noundef nonnull align 64 dereferenceable(16) @__const.aesgcm_default_test.plain2, i64 16, i1 false)
  call void @llvm.lifetime.start.p0(i64 16, ptr nonnull %9) #19
  call void @llvm.memcpy.p0.p0.i64(ptr noundef nonnull align 64 dereferenceable(16) %9, ptr noundef nonnull align 64 dereferenceable(16) @__const.aesgcm_default_test.cipher2, i64 16, i1 false)
  call void @llvm.lifetime.start.p0(i64 16, ptr nonnull %10) #19
  call void @llvm.memcpy.p0.p0.i64(ptr noundef nonnull align 16 dereferenceable(16) %10, ptr noundef nonnull align 16 dereferenceable(16) @__const.aesgcm_default_test.key3, i64 16, i1 false)
  call void @llvm.lifetime.start.p0(i64 12, ptr nonnull %11) #19
  call void @llvm.memcpy.p0.p0.i64(ptr noundef nonnull align 1 dereferenceable(12) %11, ptr noundef nonnull align 1 dereferenceable(12) @__const.aesgcm_default_test.iv3, i64 12, i1 false)
  %12 = call fastcc i32 @aesgcm_default_test_helper(ptr noundef %1, ptr noundef %2, ptr noundef nonnull %3, i32 noundef 32, ptr noundef nonnull %5, i32 noundef 32, ptr noundef nonnull %4, i32 noundef 16, ptr noundef @__const.aesgcm_default_test.tag1, i32 noundef 16)
  %.not = icmp eq i32 %12, 0
  br i1 %.not, label %13, label %17

13:                                               ; preds = %0
  %14 = call fastcc i32 @aesgcm_default_test_helper(ptr noundef %6, ptr noundef %7, ptr noundef nonnull %8, i32 noundef 16, ptr noundef nonnull %9, i32 noundef 16, ptr noundef null, i32 noundef 0, ptr noundef @__const.aesgcm_default_test.tag2, i32 noundef 16)
  %.not10 = icmp eq i32 %14, 0
  br i1 %.not10, label %15, label %17

15:                                               ; preds = %13
  %16 = call fastcc i32 @aesgcm_default_test_helper(ptr noundef %10, ptr noundef %11, ptr noundef null, i32 noundef 0, ptr noundef null, i32 noundef 0, ptr noundef null, i32 noundef 0, ptr noundef @__const.aesgcm_default_test.tag3, i32 noundef 12)
  br label %17

17:                                               ; preds = %15, %13, %0
  %.0 = phi i32 [ %12, %0 ], [ %14, %13 ], [ %16, %15 ]
  call void @llvm.lifetime.end.p0(i64 12, ptr nonnull %11) #19
  call void @llvm.lifetime.end.p0(i64 16, ptr nonnull %10) #19
  call void @llvm.lifetime.end.p0(i64 16, ptr nonnull %9) #19
  call void @llvm.lifetime.end.p0(i64 16, ptr nonnull %8) #19
  call void @llvm.lifetime.end.p0(i64 12, ptr nonnull %7) #19
  call void @llvm.lifetime.end.p0(i64 16, ptr nonnull %6) #19
  call void @llvm.lifetime.end.p0(i64 32, ptr nonnull %5) #19
  call void @llvm.lifetime.end.p0(i64 16, ptr nonnull %4) #19
  call void @llvm.lifetime.end.p0(i64 32, ptr nonnull %3) #19
  call void @llvm.lifetime.end.p0(i64 12, ptr nonnull %2) #19
  call void @llvm.lifetime.end.p0(i64 16, ptr nonnull %1) #19
  ret i32 %.0
}